target datalayout = "e-m:e-p270:32:32-p271:32:32-p272:64:64-i64:64-i128:128-f80:128-n8:16:32:64-S128"
target triple = "x86_64-pc-linux-gnu"

%struct.MPVEncContext = type { %struct.MpegEncContext, %struct.PutBitContext, i32, i32, ptr, i32, i32, i32, i32, i32, i32, i32, i32, ptr, ptr, %struct.FDCTDSPContext, %struct.MpegvideoEncDSPContext, %struct.PixblockDSPContext, %struct.MotionEstContext, i32, i32, ptr, ptr, ptr, ptr, ptr, ptr, [2 x [2 x [2 x ptr]]], [2 x ptr], [2 x [2 x ptr]], ptr, ptr, ptr, ptr, [3 x i64], i32, i32, i32, i32, i32, ptr, ptr, ptr, ptr, ptr, ptr, ptr, [12 x i32], ptr, ptr, ptr, ptr, ptr, ptr, ptr, ptr, [2 x i32], ptr, i32, i32, i32, i32, i32, i32, i32, i32, i32, i32, ptr, ptr, i32, i32, %struct.PutBitContext, %struct.PutBitContext, i32, i32, i32, i32, ptr, ptr, ptr, [2 x ptr], [2 x ptr], [2 x ptr], [2 x ptr], ptr, i32 }
%struct.MpegEncContext = type { ptr, i32, i32, i32, [12 x i32], i32, %struct.ScanTable, %struct.ScanTable, [64 x i8], [64 x i8], ptr, ptr, i32, i32, i32, i32, i32, i32, i32, i32, i32, i32, i32, i32, i32, i32, i32, i32, i32, i32, i32, i32, i64, i64, ptr, %struct.BufferPoolContext, i32, i32, %union.anon, i32, %struct.MPVWorkPicture, %struct.MPVWorkPicture, %struct.MPVWorkPicture, i32, [3 x i32], ptr, [3 x ptr], ptr, ptr, ptr, ptr, ptr, ptr, [3 x ptr], i32, ptr, ptr, ptr, ptr, %struct.ScratchpadContext, i32, i32, i32, i32, i32, i32, %struct.BlockDSPContext, %struct.H264ChromaContext, %struct.HpelDSPContext, %struct.IDCTDSPContext, %struct.QpelDSPContext, %struct.VideoDSPContext, %struct.H263DSPContext, ptr, [2 x [2 x ptr]], i32, i32, [2 x [4 x [2 x i32]]], [2 x [2 x i32]], [2 x [2 x [2 x i32]]], [2 x [64 x i16]], i32, i32, i32, i32, i32, [6 x i32], [6 x i32], [3 x ptr], ptr, [64 x i16], [64 x i16], [64 x i16], [64 x i16], i32, i32, %struct.GetBitContext, i32, i32, i32, i32, i32, i32, i32, i32, i32, i32, i32, i32, i32, i32, i32, i64, i64, i16, i16, i16, i16, i32, i32, i32, i32, i32, i32, i32, i32, i32, [3 x i32], i32, i32, i32, i32, i32, i32, %struct.GetBitContext, i32, [2 x [2 x i32]], i32, i32, i32, i32, i32, i32, i32, i32, i32, i32, i32, i32, i32, i32, [2 x i32], i32, i32, ptr, ptr, ptr, ptr, ptr, i32, i32, %struct.ERContext }
%struct.ScanTable = type { ptr, [64 x i8], [64 x i8] }
%struct.BufferPoolContext = type { ptr, ptr, ptr, ptr, ptr, i32, i32, i32 }
%union.anon = type { [32 x ptr] }
%struct.MPVWorkPicture = type { [3 x ptr], [3 x i64], ptr, ptr, [2 x ptr], ptr, ptr, [2 x ptr], i32 }
%struct.ScratchpadContext = type { ptr, ptr, %union.anon.0, i32 }
%union.anon.0 = type { ptr }
%struct.BlockDSPContext = type { ptr, ptr, [2 x ptr] }
%struct.H264ChromaContext = type { [4 x ptr], [4 x ptr] }
%struct.HpelDSPContext = type { [4 x [4 x ptr]], [4 x [4 x ptr]], [4 x [4 x ptr]], [4 x ptr] }
%struct.IDCTDSPContext = type { ptr, ptr, ptr, ptr, ptr, ptr, [64 x i8], i32, i32 }
%struct.QpelDSPContext = type { [2 x [16 x ptr]], [2 x [16 x ptr]], [2 x [16 x ptr]] }
%struct.VideoDSPContext = type { ptr, ptr }
%struct.H263DSPContext = type { ptr, ptr }
%struct.GetBitContext = type { ptr, ptr, i32, i32, i32 }
%struct.ERContext = type { ptr, ptr, i32, ptr, i32, i32, i32, i64, i64, i32, i32, ptr, ptr, [3 x ptr], ptr, ptr, [2 x [4 x [2 x i32]]], %struct.ERPicture, %struct.ERPicture, %struct.ERPicture, [2 x ptr], [2 x ptr], i16, i16, i32, i32, ptr, ptr }
%struct.ERPicture = type { ptr, ptr, ptr, [2 x ptr], [2 x ptr], ptr, i32 }
%struct.FDCTDSPContext = type { ptr, ptr }
%struct.MpegvideoEncDSPContext = type { ptr, ptr, ptr, ptr, [4 x ptr], ptr }
%struct.PixblockDSPContext = type { ptr, ptr, ptr, ptr }
%struct.MotionEstContext = type { ptr, i32, i32, [4 x [2 x i32]], [4 x [2 x i32]], ptr, ptr, i32, i32, i32, i32, i32, i32, i32, i32, i32, i32, i32, i32, i32, i32, i32, i32, [4 x [4 x ptr]], [4 x [4 x ptr]], i32, i32, i64, i64, i32, [6 x ptr], [6 x ptr], [6 x ptr], [6 x ptr], [2 x [4 x ptr]], ptr, ptr, ptr, ptr, ptr, ptr, ptr, ptr, [64 x i32], [64 x i32] }
%struct.PutBitContext = type { i32, i32, ptr, ptr, ptr }
%struct.H261EncContext = type { %struct.MPVMainEncContext, %struct.H261Context, i32, i32 }
%struct.MPVMainEncContext = type { %struct.MPVEncContext, i32, i32, i32, i32, i32, i32, [17 x ptr], [17 x ptr], i64, i64, i64, [18 x ptr], i32, i32, i32, i32, i32, float, i32, i32, i32, i32, ptr, i32, i32, i32, i32, ptr, ptr, i64, i64, i32, i32, i32, i32, i32, [5 x i32], i32, i32, %struct.RateControlContext, i32, i32, i64, i64, ptr, ptr, ptr }
%struct.RateControlContext = type { i32, ptr, double, [5 x %struct.Predictor], double, double, double, double, double, [5 x double], i64, i64, [5 x i64], [5 x i64], [5 x i64], [5 x i64], [5 x i32], i32, float, float, i32, float, float, ptr, ptr, ptr, ptr }
%struct.Predictor = type { double, double, double }
%struct.H261Context = type { i32 }
%struct.AVCodecContext = type { ptr, i32, i32, ptr, i32, i32, ptr, ptr, ptr, i64, i32, i32, ptr, i32, %struct.AVRational, %struct.AVRational, %struct.AVRational, i32, i32, i32, i32, i32, %struct.AVRational, i32, i32, i32, i32, i32, i32, i32, i32, i32, i32, i32, ptr, ptr, i32, float, float, float, float, float, float, float, float, float, i32, i32, i32, i32, i32, i32, i32, i32, i32, i32, i32, i32, ptr, ptr, ptr, i32, i32, i32, i32, i32, i32, i32, i32, i32, i32, %struct.AVChannelLayout, i32, i32, i32, i32, i32, i32, i32, i32, ptr, i32, i32, i32, float, float, i32, i32, i32, i32, i32, ptr, i64, i64, float, float, i32, i32, ptr, ptr, i32, i32, i32, i32, i32, ptr, ptr, ptr, ptr, i32, i32, [8 x i64], i32, i32, i32, i32, i32, i32, i32, ptr, ptr, i32, i32, i32, i32, i32, i32, i32, i32, i32, i32, ptr, ptr, i32, i32, ptr, ptr, ptr, ptr, i32, i32, i64, i32, i32, i64, ptr, i64, ptr, i32, ptr, i32 }
%struct.AVRational = type { i32, i32 }
%struct.AVChannelLayout = type { i32, i32, %union.anon.2, ptr }
%union.anon.2 = type { i64 }

@h261_encode_init.init_static_once = internal global i32 0, align 4
@.str.3 = private unnamed_addr constant [104 x i8] c"The specified picture size of %dx%d is not valid for the H.261 codec.\0AValid sizes are 176x144, 352x288\0A\00", align 1
@mv_penalty = internal global [8 x [16385 x i8]] zeroinitializer, align 16
@uni_h261_rl_len = internal global [8192 x i8] zeroinitializer, align 16
@uni_h261_rl_len_last = internal global [8192 x i8] zeroinitializer, align 16

; Function Attrs: cold nounwind optsize uwtable
define internal i32 @h261_encode_init(ptr noundef %0) #4 {
  %2 = alloca i32, align 4
  %3 = alloca ptr, align 8
  %4 = alloca ptr, align 8
  %5 = alloca ptr, align 8
  %6 = alloca i32, align 4
  store ptr %0, ptr %3, align 8, !tbaa !68
  call void @llvm.lifetime.start.p0(i64 8, ptr %4) #8
  %7 = load ptr, ptr %3, align 8, !tbaa !68
  %8 = getelementptr inbounds nuw %struct.AVCodecContext, ptr %7, i32 0, i32 6
  %9 = load ptr, ptr %8, align 8, !tbaa !69
  store ptr %9, ptr %4, align 8, !tbaa !9
  call void @llvm.lifetime.start.p0(i64 8, ptr %5) #8
  %10 = load ptr, ptr %4, align 8, !tbaa !9
  %11 = getelementptr inbounds nuw %struct.H261EncContext, ptr %10, i32 0, i32 0
  %12 = getelementptr inbounds nuw %struct.MPVMainEncContext, ptr %11, i32 0, i32 0
  store ptr %12, ptr %5, align 8, !tbaa !4
  %13 = load ptr, ptr %3, align 8, !tbaa !68
  %14 = getelementptr inbounds nuw %struct.AVCodecContext, ptr %13, i32 0, i32 18
  %15 = load i32, ptr %14, align 8, !tbaa !81
  %16 = icmp eq i32 %15, 176
  br i1 %16, label %17, label %25

17:                                               ; preds = %1
  %18 = load ptr, ptr %3, align 8, !tbaa !68
  %19 = getelementptr inbounds nuw %struct.AVCodecContext, ptr %18, i32 0, i32 19
  %20 = load i32, ptr %19, align 4, !tbaa !82
  %21 = icmp eq i32 %20, 144
  br i1 %21, label %22, label %25

22:                                               ; preds = %17
  %23 = load ptr, ptr %4, align 8, !tbaa !9
  %24 = getelementptr inbounds nuw %struct.H261EncContext, ptr %23, i32 0, i32 3
  store i32 0, ptr %24, align 8, !tbaa !52
  br label %47

25:                                               ; preds = %17, %1
  %26 = load ptr, ptr %3, align 8, !tbaa !68
  %27 = getelementptr inbounds nuw %struct.AVCodecContext, ptr %26, i32 0, i32 18
  %28 = load i32, ptr %27, align 8, !tbaa !81
  %29 = icmp eq i32 %28, 352
  br i1 %29, label %30, label %38

30:                                               ; preds = %25
  %31 = load ptr, ptr %3, align 8, !tbaa !68
  %32 = getelementptr inbounds nuw %struct.AVCodecContext, ptr %31, i32 0, i32 19
  %33 = load i32, ptr %32, align 4, !tbaa !82
  %34 = icmp eq i32 %33, 288
  br i1 %34, label %35, label %38

35:                                               ; preds = %30
  %36 = load ptr, ptr %4, align 8, !tbaa !9
  %37 = getelementptr inbounds nuw %struct.H261EncContext, ptr %36, i32 0, i32 3
  store i32 1, ptr %37, align 8, !tbaa !52
  br label %46

38:                                               ; preds = %30, %25
  %39 = load ptr, ptr %3, align 8, !tbaa !68
  %40 = load ptr, ptr %3, align 8, !tbaa !68
  %41 = getelementptr inbounds nuw %struct.AVCodecContext, ptr %40, i32 0, i32 18
  %42 = load i32, ptr %41, align 8, !tbaa !81
  %43 = load ptr, ptr %3, align 8, !tbaa !68
  %44 = getelementptr inbounds nuw %struct.AVCodecContext, ptr %43, i32 0, i32 19
  %45 = load i32, ptr %44, align 4, !tbaa !82
  call void (ptr, i32, ptr, ...) @av_log(ptr noundef %39, i32 noundef 16, ptr noundef @.str.3, i32 noundef %42, i32 noundef %45)
  store i32 -22, ptr %2, align 4
  store i32 1, ptr %6, align 4
  br label %78

46:                                               ; preds = %35
  br label %47

47:                                               ; preds = %46, %22
  %48 = load ptr, ptr %4, align 8, !tbaa !9
  %49 = getelementptr inbounds nuw %struct.H261EncContext, ptr %48, i32 0, i32 1
  %50 = load ptr, ptr %5, align 8, !tbaa !4
  %51 = getelementptr inbounds nuw %struct.MPVEncContext, ptr %50, i32 0, i32 0
  %52 = getelementptr inbounds nuw %struct.MpegEncContext, ptr %51, i32 0, i32 11
  store ptr %49, ptr %52, align 8, !tbaa !83
  %53 = load ptr, ptr %4, align 8, !tbaa !9
  %54 = getelementptr inbounds nuw %struct.H261EncContext, ptr %53, i32 0, i32 0
  %55 = getelementptr inbounds nuw %struct.MPVMainEncContext, ptr %54, i32 0, i32 29
  store ptr @h261_encode_picture_header, ptr %55, align 8, !tbaa !84
  %56 = load ptr, ptr %5, align 8, !tbaa !4
  %57 = getelementptr inbounds nuw %struct.MPVEncContext, ptr %56, i32 0, i32 79
  store ptr @h261_encode_mb, ptr %57, align 8, !tbaa !85
  %58 = load ptr, ptr %5, align 8, !tbaa !4
  %59 = getelementptr inbounds nuw %struct.MPVEncContext, ptr %58, i32 0, i32 37
  store i32 -127, ptr %59, align 8, !tbaa !86
  %60 = load ptr, ptr %5, align 8, !tbaa !4
  %61 = getelementptr inbounds nuw %struct.MPVEncContext, ptr %60, i32 0, i32 38
  store i32 127, ptr %61, align 4, !tbaa !87
  %62 = load ptr, ptr %5, align 8, !tbaa !4
  %63 = getelementptr inbounds nuw %struct.MPVEncContext, ptr %62, i32 0, i32 39
  store i32 20, ptr %63, align 8, !tbaa !88
  %64 = load ptr, ptr %5, align 8, !tbaa !4
  %65 = getelementptr inbounds nuw %struct.MPVEncContext, ptr %64, i32 0, i32 18
  %66 = getelementptr inbounds nuw %struct.MotionEstContext, ptr %65, i32 0, i32 40
  store ptr @mv_penalty, ptr %66, align 8, !tbaa !89
  %67 = load ptr, ptr %5, align 8, !tbaa !4
  %68 = getelementptr inbounds nuw %struct.MPVEncContext, ptr %67, i32 0, i32 44
  store ptr @uni_h261_rl_len, ptr %68, align 8, !tbaa !90
  %69 = load ptr, ptr %5, align 8, !tbaa !4
  %70 = getelementptr inbounds nuw %struct.MPVEncContext, ptr %69, i32 0, i32 40
  store ptr @uni_h261_rl_len, ptr %70, align 8, !tbaa !91
  %71 = load ptr, ptr %5, align 8, !tbaa !4
  %72 = getelementptr inbounds nuw %struct.MPVEncContext, ptr %71, i32 0, i32 45
  store ptr @uni_h261_rl_len_last, ptr %72, align 8, !tbaa !92
  %73 = load ptr, ptr %5, align 8, !tbaa !4
  %74 = getelementptr inbounds nuw %struct.MPVEncContext, ptr %73, i32 0, i32 41
  store ptr @uni_h261_rl_len_last, ptr %74, align 8, !tbaa !93
  %75 = call i32 @pthread_once(ptr noundef @h261_encode_init.init_static_once, ptr noundef @h261_encode_init_static)
  %76 = load ptr, ptr %3, align 8, !tbaa !68
  %77 = call i32 @ff_mpv_encode_init(ptr noundef %76)
  store i32 %77, ptr %2, align 4
  store i32 1, ptr %6, align 4
  br label %78

78:                                               ; preds = %47, %38
  call void @llvm.lifetime.end.p0(i64 8, ptr %5) #8
  call void @llvm.lifetime.end.p0(i64 8, ptr %4) #8
  %79 = load i32, ptr %2, align 4
  ret i32 %79
}