; Function Attrs: cold nounwind optsize uwtable
define internal i32 @h261_encode_init(ptr noundef %0) #2 {
  %2 = getelementptr inbounds nuw i8, ptr %0, i64 32
  %3 = load ptr, ptr %2, align 8, !tbaa !67
  %4 = getelementptr inbounds nuw i8, ptr %0, i64 112
  %5 = load i32, ptr %4, align 8, !tbaa !79
  %.phi.trans.insert = getelementptr inbounds nuw i8, ptr %0, i64 116
  %.pre = load i32, ptr %.phi.trans.insert, align 4, !tbaa !80
  switch i32 %5, label %.thread [
    i32 176, label %6
    i32 352, label %8
  ]

6:                                                ; preds = %1
  %7 = icmp eq i32 %.pre, 144
  br i1 %7, label %10, label %.thread

8:                                                ; preds = %1
  %9 = icmp eq i32 %.pre, 288
  br i1 %9, label %10, label %.thread

.thread:                                          ; preds = %1, %6, %8
  tail call void (ptr, i32, ptr, ...) @av_log(ptr noundef nonnull %0, i32 noundef 16, ptr noundef nonnull @.str.3, i32 noundef %5, i32 noundef %.pre) #6
  br label %26

10:                                               ; preds = %8, %6
  %.sink = phi i32 [ 0, %6 ], [ 1, %8 ]
  %11 = getelementptr inbounds nuw i8, ptr %3, i64 8128
  store i32 %.sink, ptr %11, align 8, !tbaa !47
  %12 = getelementptr inbounds nuw i8, ptr %3, i64 8120
  %13 = getelementptr inbounds nuw i8, ptr %3, i64 480
  store ptr %12, ptr %13, align 8, !tbaa !81
  %14 = getelementptr inbounds nuw i8, ptr %3, i64 7520
  store ptr @h261_encode_picture_header, ptr %14, align 8, !tbaa !82
  %15 = getelementptr inbounds nuw i8, ptr %3, i64 6888
  store ptr @h261_encode_mb, ptr %15, align 8, !tbaa !83
  %16 = getelementptr inbounds nuw i8, ptr %3, i64 6536
  store i32 -127, ptr %16, align 8, !tbaa !84
  %17 = getelementptr inbounds nuw i8, ptr %3, i64 6540
  store i32 127, ptr %17, align 4, !tbaa !85
  %18 = getelementptr inbounds nuw i8, ptr %3, i64 6544
  store i32 20, ptr %18, align 8, !tbaa !86
  %19 = getelementptr inbounds nuw i8, ptr %3, i64 5768
  store ptr @mv_penalty, ptr %19, align 8, !tbaa !87
  %20 = getelementptr inbounds nuw i8, ptr %3, i64 6584
  store ptr @uni_h261_rl_len, ptr %20, align 8, !tbaa !88
  %21 = getelementptr inbounds nuw i8, ptr %3, i64 6552
  store ptr @uni_h261_rl_len, ptr %21, align 8, !tbaa !89
  %22 = getelementptr inbounds nuw i8, ptr %3, i64 6592
  store ptr @uni_h261_rl_len_last, ptr %22, align 8, !tbaa !90
  %23 = getelementptr inbounds nuw i8, ptr %3, i64 6560
  store ptr @uni_h261_rl_len_last, ptr %23, align 8, !tbaa !91
  %24 = tail call i32 @pthread_once(ptr noundef nonnull @h261_encode_init.init_static_once, ptr noundef nonnull @h261_encode_init_static) #6
  %25 = tail call i32 @ff_mpv_encode_init(ptr noundef nonnull %0) #6
  br label %26

26:                                               ; preds = %10, %.thread
  %.0 = phi i32 [ %25, %10 ], [ -22, %.thread ]
  ret i32 %.0
}